	.cpu cortex-m4
	.arch armv7e-m
	.fpu fpv4-sp-d16
	.eabi_attribute 27, 1
	.eabi_attribute 28, 1
	.eabi_attribute 20, 1
	.eabi_attribute 21, 1
	.eabi_attribute 23, 3
	.eabi_attribute 24, 1
	.eabi_attribute 25, 1
	.eabi_attribute 26, 1
	.eabi_attribute 30, 6
	.eabi_attribute 34, 1
	.eabi_attribute 38, 1
	.eabi_attribute 18, 4
	.file	"main.c"
	.text
.Ltext0:
	.section	.text.sd_ble_gap_addr_set,"ax",%progbits
	.align	1
	.syntax unified
	.thumb
	.thumb_func
	.type	sd_ble_gap_addr_set, %function
sd_ble_gap_addr_set:
.LFB144:
	.file 1 "C:/nordic_semi/nRF5_SDK_17.1.0_ddde560/components/softdevice/s132/headers/ble_gap.h"
	.loc 1 1700 1
	@ Naked Function: prologue and epilogue provided by programmer.
	@ args = 0, pretend = 0, frame = 0
	@ frame_needed = 0, uses_anonymous_args = 0
	.loc 1 1700 1
	.syntax unified
@ 1700 "C:/nordic_semi/nRF5_SDK_17.1.0_ddde560/components/softdevice/s132/headers/ble_gap.h" 1
	svc #108
bx r14
@ 0 "" 2
	.thumb
	.syntax unified
	nop
	mov	r0, r3
.LFE144:
	.size	sd_ble_gap_addr_set, .-sd_ble_gap_addr_set
	.section	.text.sd_ble_gap_addr_get,"ax",%progbits
	.align	1
	.syntax unified
	.thumb
	.thumb_func
	.type	sd_ble_gap_addr_get, %function
sd_ble_gap_addr_get:
.LFB145:
	.loc 1 1713 1
	@ Naked Function: prologue and epilogue provided by programmer.
	@ args = 0, pretend = 0, frame = 0
	@ frame_needed = 0, uses_anonymous_args = 0
	.loc 1 1713 1
	.syntax unified
@ 1713 "C:/nordic_semi/nRF5_SDK_17.1.0_ddde560/components/softdevice/s132/headers/ble_gap.h" 1
	svc #109
bx r14
@ 0 "" 2
	.thumb
	.syntax unified
	nop
	mov	r0, r3
.LFE145:
	.size	sd_ble_gap_addr_get, .-sd_ble_gap_addr_get
	.section	.text.sd_ble_gap_adv_addr_get,"ax",%progbits
	.align	1
	.syntax unified
	.thumb
	.thumb_func
	.type	sd_ble_gap_adv_addr_get, %function
sd_ble_gap_adv_addr_get:
.LFB146:
	.loc 1 1732 1
	@ Naked Function: prologue and epilogue provided by programmer.
	@ args = 0, pretend = 0, frame = 0
	@ frame_needed = 0, uses_anonymous_args = 0
	.loc 1 1732 1
	.syntax unified
@ 1732 "C:/nordic_semi/nRF5_SDK_17.1.0_ddde560/components/softdevice/s132/headers/ble_gap.h" 1
	svc #147
bx r14
@ 0 "" 2
	.thumb
	.syntax unified
	nop
	mov	r0, r3
.LFE146:
	.size	sd_ble_gap_adv_addr_get, .-sd_ble_gap_adv_addr_get
	.section	.text.sd_ble_gap_whitelist_set,"ax",%progbits
	.align	1
	.syntax unified
	.thumb
	.thumb_func
	.type	sd_ble_gap_whitelist_set, %function
sd_ble_gap_whitelist_set:
.LFB147:
	.loc 1 1758 1
	@ Naked Function: prologue and epilogue provided by programmer.
	@ args = 0, pretend = 0, frame = 0
	@ frame_needed = 0, uses_anonymous_args = 0
	.loc 1 1758 1
	.syntax unified
@ 1758 "C:/nordic_semi/nRF5_SDK_17.1.0_ddde560/components/softdevice/s132/headers/ble_gap.h" 1
	svc #110
bx r14
@ 0 "" 2
	.thumb
	.syntax unified
	nop
	mov	r0, r3
.LFE147:
	.size	sd_ble_gap_whitelist_set, .-sd_ble_gap_whitelist_set
	.section	.text.sd_ble_gap_device_identities_set,"ax",%progbits
	.align	1
	.syntax unified
	.thumb
	.thumb_func
	.type	sd_ble_gap_device_identities_set, %function
sd_ble_gap_device_identities_set:
.LFB148:
	.loc 1 1789 1
	@ Naked Function: prologue and epilogue provided by programmer.
	@ args = 0, pretend = 0, frame = 0
	@ frame_needed = 0, uses_anonymous_args = 0
	.loc 1 1789 1
	.syntax unified
@ 1789 "C:/nordic_semi/nRF5_SDK_17.1.0_ddde560/components/softdevice/s132/headers/ble_gap.h" 1
	svc #111
bx r14
@ 0 "" 2
	.thumb
	.syntax unified
	nop
	mov	r0, r3
.LFE148:
	.size	sd_ble_gap_device_identities_set, .-sd_ble_gap_device_identities_set
	.section	.text.sd_ble_gap_privacy_set,"ax",%progbits
	.align	1
	.syntax unified
	.thumb
	.thumb_func
	.type	sd_ble_gap_privacy_set, %function
sd_ble_gap_privacy_set:
.LFB149:
	.loc 1 1817 1
	@ Naked Function: prologue and epilogue provided by programmer.
	@ args = 0, pretend = 0, frame = 0
	@ frame_needed = 0, uses_anonymous_args = 0
	.loc 1 1817 1
	.syntax unified
@ 1817 "C:/nordic_semi/nRF5_SDK_17.1.0_ddde560/components/softdevice/s132/headers/ble_gap.h" 1
	svc #112
bx r14
@ 0 "" 2
	.thumb
	.syntax unified
	nop
	mov	r0, r3
.LFE149:
	.size	sd_ble_gap_privacy_set, .-sd_ble_gap_privacy_set
	.section	.text.sd_ble_gap_privacy_get,"ax",%progbits
	.align	1
	.syntax unified
	.thumb
	.thumb_func
	.type	sd_ble_gap_privacy_get, %function
sd_ble_gap_privacy_get:
.LFB150:
	.loc 1 1831 1
	@ Naked Function: prologue and epilogue provided by programmer.
	@ args = 0, pretend = 0, frame = 0
	@ frame_needed = 0, uses_anonymous_args = 0
	.loc 1 1831 1
	.syntax unified
@ 1831 "C:/nordic_semi/nRF5_SDK_17.1.0_ddde560/components/softdevice/s132/headers/ble_gap.h" 1
	svc #113
bx r14
@ 0 "" 2
	.thumb
	.syntax unified
	nop
	mov	r0, r3
.LFE150:
	.size	sd_ble_gap_privacy_get, .-sd_ble_gap_privacy_get
	.section	.text.sd_ble_gap_adv_set_configure,"ax",%progbits
	.align	1
	.syntax unified
	.thumb
	.thumb_func
	.type	sd_ble_gap_adv_set_configure, %function
sd_ble_gap_adv_set_configure:
.LFB151:
	.loc 1 1878 1
	@ Naked Function: prologue and epilogue provided by programmer.
	@ args = 0, pretend = 0, frame = 0
	@ frame_needed = 0, uses_anonymous_args = 0
	.loc 1 1878 1
	.syntax unified
@ 1878 "C:/nordic_semi/nRF5_SDK_17.1.0_ddde560/components/softdevice/s132/headers/ble_gap.h" 1
	svc #114
bx r14
@ 0 "" 2
	.thumb
	.syntax unified
	nop
	mov	r0, r3
.LFE151:
	.size	sd_ble_gap_adv_set_configure, .-sd_ble_gap_adv_set_configure
	.section	.text.sd_ble_gap_adv_start,"ax",%progbits
	.align	1
	.syntax unified
	.thumb
	.thumb_func
	.type	sd_ble_gap_adv_start, %function
sd_ble_gap_adv_start:
.LFB152:
	.loc 1 1928 1
	@ Naked Function: prologue and epilogue provided by programmer.
	@ args = 0, pretend = 0, frame = 0
	@ frame_needed = 0, uses_anonymous_args = 0
	.loc 1 1928 1
	.syntax unified
@ 1928 "C:/nordic_semi/nRF5_SDK_17.1.0_ddde560/components/softdevice/s132/headers/ble_gap.h" 1
	svc #115
bx r14
@ 0 "" 2
	.thumb
	.syntax unified
	nop
	mov	r0, r3
.LFE152:
	.size	sd_ble_gap_adv_start, .-sd_ble_gap_adv_start
	.section	.text.sd_ble_gap_adv_stop,"ax",%progbits
	.align	1
	.syntax unified
	.thumb
	.thumb_func
	.type	sd_ble_gap_adv_stop, %function
sd_ble_gap_adv_stop:
.LFB153:
	.loc 1 1944 1
	@ Naked Function: prologue and epilogue provided by programmer.
	@ args = 0, pretend = 0, frame = 0
	@ frame_needed = 0, uses_anonymous_args = 0
	.loc 1 1944 1
	.syntax unified
@ 1944 "C:/nordic_semi/nRF5_SDK_17.1.0_ddde560/components/softdevice/s132/headers/ble_gap.h" 1
	svc #116
bx r14
@ 0 "" 2
	.thumb
	.syntax unified
	nop
	mov	r0, r3
.LFE153:
	.size	sd_ble_gap_adv_stop, .-sd_ble_gap_adv_stop
	.section	.text.sd_ble_gap_conn_param_update,"ax",%progbits
	.align	1
	.syntax unified
	.thumb
	.thumb_func
	.type	sd_ble_gap_conn_param_update, %function
sd_ble_gap_conn_param_update:
.LFB154:
	.loc 1 1982 1
	@ Naked Function: prologue and epilogue provided by programmer.
	@ args = 0, pretend = 0, frame = 0
	@ frame_needed = 0, uses_anonymous_args = 0
	.loc 1 1982 1
	.syntax unified
@ 1982 "C:/nordic_semi/nRF5_SDK_17.1.0_ddde560/components/softdevice/s132/headers/ble_gap.h" 1
	svc #117
bx r14
@ 0 "" 2
	.thumb
	.syntax unified
	nop
	mov	r0, r3
.LFE154:
	.size	sd_ble_gap_conn_param_update, .-sd_ble_gap_conn_param_update
	.section	.text.sd_ble_gap_disconnect,"ax",%progbits
	.align	1
	.syntax unified
	.thumb
	.thumb_func
	.type	sd_ble_gap_disconnect, %function
sd_ble_gap_disconnect:
.LFB155:
	.loc 1 2006 1
	@ Naked Function: prologue and epilogue provided by programmer.
	@ args = 0, pretend = 0, frame = 0
	@ frame_needed = 0, uses_anonymous_args = 0
	.loc 1 2006 1
	.syntax unified
@ 2006 "C:/nordic_semi/nRF5_SDK_17.1.0_ddde560/components/softdevice/s132/headers/ble_gap.h" 1
	svc #118
bx r14
@ 0 "" 2
	.thumb
	.syntax unified
	nop
	mov	r0, r3
.LFE155:
	.size	sd_ble_gap_disconnect, .-sd_ble_gap_disconnect
	.section	.text.sd_ble_gap_tx_power_set,"ax",%progbits
	.align	1
	.syntax unified
	.thumb
	.thumb_func
	.type	sd_ble_gap_tx_power_set, %function
sd_ble_gap_tx_power_set:
.LFB156:
	.loc 1 2031 1
	@ Naked Function: prologue and epilogue provided by programmer.
	@ args = 0, pretend = 0, frame = 0
	@ frame_needed = 0, uses_anonymous_args = 0
	.loc 1 2031 1
	.syntax unified
@ 2031 "C:/nordic_semi/nRF5_SDK_17.1.0_ddde560/components/softdevice/s132/headers/ble_gap.h" 1
	svc #119
bx r14
@ 0 "" 2
	.thumb
	.syntax unified
	nop
	mov	r0, r3
.LFE156:
	.size	sd_ble_gap_tx_power_set, .-sd_ble_gap_tx_power_set
	.section	.text.sd_ble_gap_appearance_set,"ax",%progbits
	.align	1
	.syntax unified
	.thumb
	.thumb_func
	.type	sd_ble_gap_appearance_set, %function
sd_ble_gap_appearance_set:
.LFB157:
	.loc 1 2041 1
	@ Naked Function: prologue and epilogue provided by programmer.
	@ args = 0, pretend = 0, frame = 0
	@ frame_needed = 0, uses_anonymous_args = 0
	.loc 1 2041 1
	.syntax unified
@ 2041 "C:/nordic_semi/nRF5_SDK_17.1.0_ddde560/components/softdevice/s132/headers/ble_gap.h" 1
	svc #120
bx r14
@ 0 "" 2
	.thumb
	.syntax unified
	nop
	mov	r0, r3
.LFE157:
	.size	sd_ble_gap_appearance_set, .-sd_ble_gap_appearance_set
	.section	.text.sd_ble_gap_appearance_get,"ax",%progbits
	.align	1
	.syntax unified
	.thumb
	.thumb_func
	.type	sd_ble_gap_appearance_get, %function
sd_ble_gap_appearance_get:
.LFB158:
	.loc 1 2051 1
	@ Naked Function: prologue and epilogue provided by programmer.
	@ args = 0, pretend = 0, frame = 0
	@ frame_needed = 0, uses_anonymous_args = 0
	.loc 1 2051 1
	.syntax unified
@ 2051 "C:/nordic_semi/nRF5_SDK_17.1.0_ddde560/components/softdevice/s132/headers/ble_gap.h" 1
	svc #121
bx r14
@ 0 "" 2
	.thumb
	.syntax unified
	nop
	mov	r0, r3
.LFE158:
	.size	sd_ble_gap_appearance_get, .-sd_ble_gap_appearance_get
	.section	.text.sd_ble_gap_ppcp_set,"ax",%progbits
	.align	1
	.syntax unified
	.thumb
	.thumb_func
	.type	sd_ble_gap_ppcp_set, %function
sd_ble_gap_ppcp_set:
.LFB159:
	.loc 1 2064 1
	@ Naked Function: prologue and epilogue provided by programmer.
	@ args = 0, pretend = 0, frame = 0
	@ frame_needed = 0, uses_anonymous_args = 0
	.loc 1 2064 1
	.syntax unified
@ 2064 "C:/nordic_semi/nRF5_SDK_17.1.0_ddde560/components/softdevice/s132/headers/ble_gap.h" 1
	svc #122
bx r14
@ 0 "" 2
	.thumb
	.syntax unified
	nop
	mov	r0, r3
.LFE159:
	.size	sd_ble_gap_ppcp_set, .-sd_ble_gap_ppcp_set
	.section	.text.sd_ble_gap_ppcp_get,"ax",%progbits
	.align	1
	.syntax unified
	.thumb
	.thumb_func
	.type	sd_ble_gap_ppcp_get, %function
sd_ble_gap_ppcp_get:
.LFB160:
	.loc 1 2076 1
	@ Naked Function: prologue and epilogue provided by programmer.
	@ args = 0, pretend = 0, frame = 0
	@ frame_needed = 0, uses_anonymous_args = 0
	.loc 1 2076 1
	.syntax unified
@ 2076 "C:/nordic_semi/nRF5_SDK_17.1.0_ddde560/components/softdevice/s132/headers/ble_gap.h" 1
	svc #123
bx r14
@ 0 "" 2
	.thumb
	.syntax unified
	nop
	mov	r0, r3
.LFE160:
	.size	sd_ble_gap_ppcp_get, .-sd_ble_gap_ppcp_get
	.section	.text.sd_ble_gap_device_name_set,"ax",%progbits
	.align	1
	.syntax unified
	.thumb
	.thumb_func
	.type	sd_ble_gap_device_name_set, %function
sd_ble_gap_device_name_set:
.LFB161:
	.loc 1 2094 1
	@ Naked Function: prologue and epilogue provided by programmer.
	@ args = 0, pretend = 0, frame = 0
	@ frame_needed = 0, uses_anonymous_args = 0
	.loc 1 2094 1
	.syntax unified
@ 2094 "C:/nordic_semi/nRF5_SDK_17.1.0_ddde560/components/softdevice/s132/headers/ble_gap.h" 1
	svc #124
bx r14
@ 0 "" 2
	.thumb
	.syntax unified
	nop
	mov	r0, r3
.LFE161:
	.size	sd_ble_gap_device_name_set, .-sd_ble_gap_device_name_set
	.section	.text.sd_ble_gap_device_name_get,"ax",%progbits
	.align	1
	.syntax unified
	.thumb
	.thumb_func
	.type	sd_ble_gap_device_name_get, %function
sd_ble_gap_device_name_get:
.LFB162:
	.loc 1 2111 1
	@ Naked Function: prologue and epilogue provided by programmer.
	@ args = 0, pretend = 0, frame = 0
	@ frame_needed = 0, uses_anonymous_args = 0
	.loc 1 2111 1
	.syntax unified
@ 2111 "C:/nordic_semi/nRF5_SDK_17.1.0_ddde560/components/softdevice/s132/headers/ble_gap.h" 1
	svc #125
bx r14
@ 0 "" 2
	.thumb
	.syntax unified
	nop
	mov	r0, r3
.LFE162:
	.size	sd_ble_gap_device_name_get, .-sd_ble_gap_device_name_get
	.section	.text.sd_ble_gap_authenticate,"ax",%progbits
	.align	1
	.syntax unified
	.thumb
	.thumb_func
	.type	sd_ble_gap_authenticate, %function
sd_ble_gap_authenticate:
.LFB163:
	.loc 1 2167 1
	@ Naked Function: prologue and epilogue provided by programmer.
	@ args = 0, pretend = 0, frame = 0
	@ frame_needed = 0, uses_anonymous_args = 0
	.loc 1 2167 1
	.syntax unified
@ 2167 "C:/nordic_semi/nRF5_SDK_17.1.0_ddde560/components/softdevice/s132/headers/ble_gap.h" 1
	svc #126
bx r14
@ 0 "" 2
	.thumb
	.syntax unified
	nop
	mov	r0, r3
.LFE163:
	.size	sd_ble_gap_authenticate, .-sd_ble_gap_authenticate
	.section	.text.sd_ble_gap_sec_params_reply,"ax",%progbits
	.align	1
	.syntax unified
	.thumb
	.thumb_func
	.type	sd_ble_gap_sec_params_reply, %function
sd_ble_gap_sec_params_reply:
.LFB164:
	.loc 1 2230 1
	@ Naked Function: prologue and epilogue provided by programmer.
	@ args = 0, pretend = 0, frame = 0
	@ frame_needed = 0, uses_anonymous_args = 0
	.loc 1 2230 1
	.syntax unified
@ 2230 "C:/nordic_semi/nRF5_SDK_17.1.0_ddde560/components/softdevice/s132/headers/ble_gap.h" 1
	svc #127
bx r14
@ 0 "" 2
	.thumb
	.syntax unified
	nop
	mov	r0, r3
.LFE164:
	.size	sd_ble_gap_sec_params_reply, .-sd_ble_gap_sec_params_reply
	.section	.text.sd_ble_gap_auth_key_reply,"ax",%progbits
	.align	1
	.syntax unified
	.thumb
	.thumb_func
	.type	sd_ble_gap_auth_key_reply, %function
sd_ble_gap_auth_key_reply:
.LFB165:
	.loc 1 2264 1
	@ Naked Function: prologue and epilogue provided by programmer.
	@ args = 0, pretend = 0, frame = 0
	@ frame_needed = 0, uses_anonymous_args = 0
	.loc 1 2264 1
	.syntax unified
@ 2264 "C:/nordic_semi/nRF5_SDK_17.1.0_ddde560/components/softdevice/s132/headers/ble_gap.h" 1
	svc #128
bx r14
@ 0 "" 2
	.thumb
	.syntax unified
	nop
	mov	r0, r3
.LFE165:
	.size	sd_ble_gap_auth_key_reply, .-sd_ble_gap_auth_key_reply
	.section	.text.sd_ble_gap_lesc_dhkey_reply,"ax",%progbits
	.align	1
	.syntax unified
	.thumb
	.thumb_func
	.type	sd_ble_gap_lesc_dhkey_reply, %function
sd_ble_gap_lesc_dhkey_reply:
.LFB166:
	.loc 1 2300 1
	@ Naked Function: prologue and epilogue provided by programmer.
	@ args = 0, pretend = 0, frame = 0
	@ frame_needed = 0, uses_anonymous_args = 0
	.loc 1 2300 1
	.syntax unified
@ 2300 "C:/nordic_semi/nRF5_SDK_17.1.0_ddde560/components/softdevice/s132/headers/ble_gap.h" 1
	svc #129
bx r14
@ 0 "" 2
	.thumb
	.syntax unified
	nop
	mov	r0, r3
.LFE166:
	.size	sd_ble_gap_lesc_dhkey_reply, .-sd_ble_gap_lesc_dhkey_reply
	.section	.text.sd_ble_gap_keypress_notify,"ax",%progbits
	.align	1
	.syntax unified
	.thumb
	.thumb_func
	.type	sd_ble_gap_keypress_notify, %function
sd_ble_gap_keypress_notify:
.LFB167:
	.loc 1 2322 1
	@ Naked Function: prologue and epilogue provided by programmer.
	@ args = 0, pretend = 0, frame = 0
	@ frame_needed = 0, uses_anonymous_args = 0
	.loc 1 2322 1
	.syntax unified
@ 2322 "C:/nordic_semi/nRF5_SDK_17.1.0_ddde560/components/softdevice/s132/headers/ble_gap.h" 1
	svc #130
bx r14
@ 0 "" 2
	.thumb
	.syntax unified
	nop
	mov	r0, r3
.LFE167:
	.size	sd_ble_gap_keypress_notify, .-sd_ble_gap_keypress_notify
	.section	.text.sd_ble_gap_lesc_oob_data_get,"ax",%progbits
	.align	1
	.syntax unified
	.thumb
	.thumb_func
	.type	sd_ble_gap_lesc_oob_data_get, %function
sd_ble_gap_lesc_oob_data_get:
.LFB168:
	.loc 1 2343 1
	@ Naked Function: prologue and epilogue provided by programmer.
	@ args = 0, pretend = 0, frame = 0
	@ frame_needed = 0, uses_anonymous_args = 0
	.loc 1 2343 1
	.syntax unified
@ 2343 "C:/nordic_semi/nRF5_SDK_17.1.0_ddde560/components/softdevice/s132/headers/ble_gap.h" 1
	svc #131
bx r14
@ 0 "" 2
	.thumb
	.syntax unified
	nop
	mov	r0, r3
.LFE168:
	.size	sd_ble_gap_lesc_oob_data_get, .-sd_ble_gap_lesc_oob_data_get
	.section	.text.sd_ble_gap_lesc_oob_data_set,"ax",%progbits
	.align	1
	.syntax unified
	.thumb
	.thumb_func
	.type	sd_ble_gap_lesc_oob_data_set, %function
sd_ble_gap_lesc_oob_data_set:
.LFB169:
	.loc 1 2375 1
	@ Naked Function: prologue and epilogue provided by programmer.
	@ args = 0, pretend = 0, frame = 0
	@ frame_needed = 0, uses_anonymous_args = 0
	.loc 1 2375 1
	.syntax unified
@ 2375 "C:/nordic_semi/nRF5_SDK_17.1.0_ddde560/components/softdevice/s132/headers/ble_gap.h" 1
	svc #132
bx r14
@ 0 "" 2
	.thumb
	.syntax unified
	nop
	mov	r0, r3
.LFE169:
	.size	sd_ble_gap_lesc_oob_data_set, .-sd_ble_gap_lesc_oob_data_set
	.section	.text.sd_ble_gap_encrypt,"ax",%progbits
	.align	1
	.syntax unified
	.thumb
	.thumb_func
	.type	sd_ble_gap_encrypt, %function
sd_ble_gap_encrypt:
.LFB170:
	.loc 1 2404 1
	@ Naked Function: prologue and epilogue provided by programmer.
	@ args = 0, pretend = 0, frame = 0
	@ frame_needed = 0, uses_anonymous_args = 0
	.loc 1 2404 1
	.syntax unified
@ 2404 "C:/nordic_semi/nRF5_SDK_17.1.0_ddde560/components/softdevice/s132/headers/ble_gap.h" 1
	svc #133
bx r14
@ 0 "" 2
	.thumb
	.syntax unified
	nop
	mov	r0, r3
.LFE170:
	.size	sd_ble_gap_encrypt, .-sd_ble_gap_encrypt
	.section	.text.sd_ble_gap_sec_info_reply,"ax",%progbits
	.align	1
	.syntax unified
	.thumb
	.thumb_func
	.type	sd_ble_gap_sec_info_reply, %function
sd_ble_gap_sec_info_reply:
.LFB171:
	.loc 1 2430 1
	@ Naked Function: prologue and epilogue provided by programmer.
	@ args = 0, pretend = 0, frame = 0
	@ frame_needed = 0, uses_anonymous_args = 0
	.loc 1 2430 1
	.syntax unified
@ 2430 "C:/nordic_semi/nRF5_SDK_17.1.0_ddde560/components/softdevice/s132/headers/ble_gap.h" 1
	svc #134
bx r14
@ 0 "" 2
	.thumb
	.syntax unified
	nop
	mov	r0, r3
.LFE171:
	.size	sd_ble_gap_sec_info_reply, .-sd_ble_gap_sec_info_reply
	.section	.text.sd_ble_gap_conn_sec_get,"ax",%progbits
	.align	1
	.syntax unified
	.thumb
	.thumb_func
	.type	sd_ble_gap_conn_sec_get, %function
sd_ble_gap_conn_sec_get:
.LFB172:
	.loc 1 2442 1
	@ Naked Function: prologue and epilogue provided by programmer.
	@ args = 0, pretend = 0, frame = 0
	@ frame_needed = 0, uses_anonymous_args = 0
	.loc 1 2442 1
	.syntax unified
@ 2442 "C:/nordic_semi/nRF5_SDK_17.1.0_ddde560/components/softdevice/s132/headers/ble_gap.h" 1
	svc #135
bx r14
@ 0 "" 2
	.thumb
	.syntax unified
	nop
	mov	r0, r3
.LFE172:
	.size	sd_ble_gap_conn_sec_get, .-sd_ble_gap_conn_sec_get
	.section	.text.sd_ble_gap_rssi_start,"ax",%progbits
	.align	1
	.syntax unified
	.thumb
	.thumb_func
	.type	sd_ble_gap_rssi_start, %function
sd_ble_gap_rssi_start:
.LFB173:
	.loc 1 2468 1
	@ Naked Function: prologue and epilogue provided by programmer.
	@ args = 0, pretend = 0, frame = 0
	@ frame_needed = 0, uses_anonymous_args = 0
	.loc 1 2468 1
	.syntax unified
@ 2468 "C:/nordic_semi/nRF5_SDK_17.1.0_ddde560/components/softdevice/s132/headers/ble_gap.h" 1
	svc #136
bx r14
@ 0 "" 2
	.thumb
	.syntax unified
	nop
	mov	r0, r3
.LFE173:
	.size	sd_ble_gap_rssi_start, .-sd_ble_gap_rssi_start
	.section	.text.sd_ble_gap_rssi_stop,"ax",%progbits
	.align	1
	.syntax unified
	.thumb
	.thumb_func
	.type	sd_ble_gap_rssi_stop, %function
sd_ble_gap_rssi_stop:
.LFB174:
	.loc 1 2487 1
	@ Naked Function: prologue and epilogue provided by programmer.
	@ args = 0, pretend = 0, frame = 0
	@ frame_needed = 0, uses_anonymous_args = 0
	.loc 1 2487 1
	.syntax unified
@ 2487 "C:/nordic_semi/nRF5_SDK_17.1.0_ddde560/components/softdevice/s132/headers/ble_gap.h" 1
	svc #137
bx r14
@ 0 "" 2
	.thumb
	.syntax unified
	nop
	mov	r0, r3
.LFE174:
	.size	sd_ble_gap_rssi_stop, .-sd_ble_gap_rssi_stop
	.section	.text.sd_ble_gap_rssi_get,"ax",%progbits
	.align	1
	.syntax unified
	.thumb
	.thumb_func
	.type	sd_ble_gap_rssi_get, %function
sd_ble_gap_rssi_get:
.LFB175:
	.loc 1 2509 1
	@ Naked Function: prologue and epilogue provided by programmer.
	@ args = 0, pretend = 0, frame = 0
	@ frame_needed = 0, uses_anonymous_args = 0
	.loc 1 2509 1
	.syntax unified
@ 2509 "C:/nordic_semi/nRF5_SDK_17.1.0_ddde560/components/softdevice/s132/headers/ble_gap.h" 1
	svc #142
bx r14
@ 0 "" 2
	.thumb
	.syntax unified
	nop
	mov	r0, r3
.LFE175:
	.size	sd_ble_gap_rssi_get, .-sd_ble_gap_rssi_get
	.section	.text.sd_ble_gap_scan_start,"ax",%progbits
	.align	1
	.syntax unified
	.thumb
	.thumb_func
	.type	sd_ble_gap_scan_start, %function
sd_ble_gap_scan_start:
.LFB176:
	.loc 1 2563 1
	@ Naked Function: prologue and epilogue provided by programmer.
	@ args = 0, pretend = 0, frame = 0
	@ frame_needed = 0, uses_anonymous_args = 0
	.loc 1 2563 1
	.syntax unified
@ 2563 "C:/nordic_semi/nRF5_SDK_17.1.0_ddde560/components/softdevice/s132/headers/ble_gap.h" 1
	svc #138
bx r14
@ 0 "" 2
	.thumb
	.syntax unified
	nop
	mov	r0, r3
.LFE176:
	.size	sd_ble_gap_scan_start, .-sd_ble_gap_scan_start
	.section	.text.sd_ble_gap_scan_stop,"ax",%progbits
	.align	1
	.syntax unified
	.thumb
	.thumb_func
	.type	sd_ble_gap_scan_stop, %function
sd_ble_gap_scan_stop:
.LFB177:
	.loc 1 2578 1
	@ Naked Function: prologue and epilogue provided by programmer.
	@ args = 0, pretend = 0, frame = 0
	@ frame_needed = 0, uses_anonymous_args = 0
	.loc 1 2578 1
	.syntax unified
@ 2578 "C:/nordic_semi/nRF5_SDK_17.1.0_ddde560/components/softdevice/s132/headers/ble_gap.h" 1
	svc #139
bx r14
@ 0 "" 2
	.thumb
	.syntax unified
	nop
	mov	r0, r3
.LFE177:
	.size	sd_ble_gap_scan_stop, .-sd_ble_gap_scan_stop
	.section	.text.sd_ble_gap_connect,"ax",%progbits
	.align	1
	.syntax unified
	.thumb
	.thumb_func
	.type	sd_ble_gap_connect, %function
sd_ble_gap_connect:
.LFB178:
	.loc 1 2625 1
	@ Naked Function: prologue and epilogue provided by programmer.
	@ args = 0, pretend = 0, frame = 0
	@ frame_needed = 0, uses_anonymous_args = 0
	.loc 1 2625 1
	.syntax unified
@ 2625 "C:/nordic_semi/nRF5_SDK_17.1.0_ddde560/components/softdevice/s132/headers/ble_gap.h" 1
	svc #140
bx r14
@ 0 "" 2
	.thumb
	.syntax unified
	nop
	mov	r0, r3
.LFE178:
	.size	sd_ble_gap_connect, .-sd_ble_gap_connect
	.section	.text.sd_ble_gap_connect_cancel,"ax",%progbits
	.align	1
	.syntax unified
	.thumb
	.thumb_func
	.type	sd_ble_gap_connect_cancel, %function
sd_ble_gap_connect_cancel:
.LFB179:
	.loc 1 2638 1
	@ Naked Function: prologue and epilogue provided by programmer.
	@ args = 0, pretend = 0, frame = 0
	@ frame_needed = 0, uses_anonymous_args = 0
	.loc 1 2638 1
	.syntax unified
@ 2638 "C:/nordic_semi/nRF5_SDK_17.1.0_ddde560/components/softdevice/s132/headers/ble_gap.h" 1
	svc #141
bx r14
@ 0 "" 2
	.thumb
	.syntax unified
	nop
	mov	r0, r3
.LFE179:
	.size	sd_ble_gap_connect_cancel, .-sd_ble_gap_connect_cancel
	.section	.text.sd_ble_gap_phy_update,"ax",%progbits
	.align	1
	.syntax unified
	.thumb
	.thumb_func
	.type	sd_ble_gap_phy_update, %function
sd_ble_gap_phy_update:
.LFB180:
	.loc 1 2692 1
	@ Naked Function: prologue and epilogue provided by programmer.
	@ args = 0, pretend = 0, frame = 0
	@ frame_needed = 0, uses_anonymous_args = 0
	.loc 1 2692 1
	.syntax unified
@ 2692 "C:/nordic_semi/nRF5_SDK_17.1.0_ddde560/components/softdevice/s132/headers/ble_gap.h" 1
	svc #143
bx r14
@ 0 "" 2
	.thumb
	.syntax unified
	nop
	mov	r0, r3
.LFE180:
	.size	sd_ble_gap_phy_update, .-sd_ble_gap_phy_update
	.section	.text.sd_ble_gap_data_length_update,"ax",%progbits
	.align	1
	.syntax unified
	.thumb
	.thumb_func
	.type	sd_ble_gap_data_length_update, %function
sd_ble_gap_data_length_update:
.LFB181:
	.loc 1 2727 1
	@ Naked Function: prologue and epilogue provided by programmer.
	@ args = 0, pretend = 0, frame = 0
	@ frame_needed = 0, uses_anonymous_args = 0
	.loc 1 2727 1
	.syntax unified
@ 2727 "C:/nordic_semi/nRF5_SDK_17.1.0_ddde560/components/softdevice/s132/headers/ble_gap.h" 1
	svc #144
bx r14
@ 0 "" 2
	.thumb
	.syntax unified
	nop
	mov	r0, r3
.LFE181:
	.size	sd_ble_gap_data_length_update, .-sd_ble_gap_data_length_update
	.section	.text.sd_ble_gap_qos_channel_survey_start,"ax",%progbits
	.align	1
	.syntax unified
	.thumb
	.thumb_func
	.type	sd_ble_gap_qos_channel_survey_start, %function
sd_ble_gap_qos_channel_survey_start:
.LFB182:
	.loc 1 2759 1
	@ Naked Function: prologue and epilogue provided by programmer.
	@ args = 0, pretend = 0, frame = 0
	@ frame_needed = 0, uses_anonymous_args = 0
	.loc 1 2759 1
	.syntax unified
@ 2759 "C:/nordic_semi/nRF5_SDK_17.1.0_ddde560/components/softdevice/s132/headers/ble_gap.h" 1
	svc #145
bx r14
@ 0 "" 2
	.thumb
	.syntax unified
	nop
	mov	r0, r3
.LFE182:
	.size	sd_ble_gap_qos_channel_survey_start, .-sd_ble_gap_qos_channel_survey_start
	.section	.text.sd_ble_gap_qos_channel_survey_stop,"ax",%progbits
	.align	1
	.syntax unified
	.thumb
	.thumb_func
	.type	sd_ble_gap_qos_channel_survey_stop, %function
sd_ble_gap_qos_channel_survey_stop:
.LFB183:
	.loc 1 2769 1
	@ Naked Function: prologue and epilogue provided by programmer.
	@ args = 0, pretend = 0, frame = 0
	@ frame_needed = 0, uses_anonymous_args = 0
	.loc 1 2769 1
	.syntax unified
@ 2769 "C:/nordic_semi/nRF5_SDK_17.1.0_ddde560/components/softdevice/s132/headers/ble_gap.h" 1
	svc #146
bx r14
@ 0 "" 2
	.thumb
	.syntax unified
	nop
	mov	r0, r3
.LFE183:
	.size	sd_ble_gap_qos_channel_survey_stop, .-sd_ble_gap_qos_channel_survey_stop
	.section	.text.sd_ble_gap_next_conn_evt_counter_get,"ax",%progbits
	.align	1
	.syntax unified
	.thumb
	.thumb_func
	.type	sd_ble_gap_next_conn_evt_counter_get, %function
sd_ble_gap_next_conn_evt_counter_get:
.LFB184:
	.loc 1 2793 1
	@ Naked Function: prologue and epilogue provided by programmer.
	@ args = 0, pretend = 0, frame = 0
	@ frame_needed = 0, uses_anonymous_args = 0
	.loc 1 2793 1
	.syntax unified
@ 2793 "C:/nordic_semi/nRF5_SDK_17.1.0_ddde560/components/softdevice/s132/headers/ble_gap.h" 1
	svc #148
bx r14
@ 0 "" 2
	.thumb
	.syntax unified
	nop
	mov	r0, r3
.LFE184:
	.size	sd_ble_gap_next_conn_evt_counter_get, .-sd_ble_gap_next_conn_evt_counter_get
	.section	.text.sd_ble_gap_conn_evt_trigger_start,"ax",%progbits
	.align	1
	.syntax unified
	.thumb
	.thumb_func
	.type	sd_ble_gap_conn_evt_trigger_start, %function
sd_ble_gap_conn_evt_trigger_start:
.LFB185:
	.loc 1 2815 1
	@ Naked Function: prologue and epilogue provided by programmer.
	@ args = 0, pretend = 0, frame = 0
	@ frame_needed = 0, uses_anonymous_args = 0
	.loc 1 2815 1
	.syntax unified
@ 2815 "C:/nordic_semi/nRF5_SDK_17.1.0_ddde560/components/softdevice/s132/headers/ble_gap.h" 1
	svc #149
bx r14
@ 0 "" 2
	.thumb
	.syntax unified
	nop
	mov	r0, r3
.LFE185:
	.size	sd_ble_gap_conn_evt_trigger_start, .-sd_ble_gap_conn_evt_trigger_start
	.section	.text.sd_ble_gap_conn_evt_trigger_stop,"ax",%progbits
	.align	1
	.syntax unified
	.thumb
	.thumb_func
	.type	sd_ble_gap_conn_evt_trigger_stop, %function
sd_ble_gap_conn_evt_trigger_stop:
.LFB186:
	.loc 1 2826 1
	@ Naked Function: prologue and epilogue provided by programmer.
	@ args = 0, pretend = 0, frame = 0
	@ frame_needed = 0, uses_anonymous_args = 0
	.loc 1 2826 1
	.syntax unified
@ 2826 "C:/nordic_semi/nRF5_SDK_17.1.0_ddde560/components/softdevice/s132/headers/ble_gap.h" 1
	svc #150
bx r14
@ 0 "" 2
	.thumb
	.syntax unified
	nop
	mov	r0, r3
.LFE186:
	.size	sd_ble_gap_conn_evt_trigger_stop, .-sd_ble_gap_conn_evt_trigger_stop
	.section	.text.sd_ble_l2cap_ch_setup,"ax",%progbits
	.align	1
	.syntax unified
	.thumb
	.thumb_func
	.type	sd_ble_l2cap_ch_setup, %function
sd_ble_l2cap_ch_setup:
.LFB187:
	.file 2 "C:/nordic_semi/nRF5_SDK_17.1.0_ddde560/components/softdevice/s132/headers/ble_l2cap.h"
	.loc 2 350 1
	@ Naked Function: prologue and epilogue provided by programmer.
	@ args = 0, pretend = 0, frame = 0
	@ frame_needed = 0, uses_anonymous_args = 0
	.loc 2 350 1
	.syntax unified
@ 350 "C:/nordic_semi/nRF5_SDK_17.1.0_ddde560/components/softdevice/s132/headers/ble_l2cap.h" 1
	svc #184
bx r14
@ 0 "" 2
	.thumb
	.syntax unified
	nop
	mov	r0, r3
.LFE187:
	.size	sd_ble_l2cap_ch_setup, .-sd_ble_l2cap_ch_setup
	.section	.text.sd_ble_l2cap_ch_release,"ax",%progbits
	.align	1
	.syntax unified
	.thumb
	.thumb_func
	.type	sd_ble_l2cap_ch_release, %function
sd_ble_l2cap_ch_release:
.LFB188:
	.loc 2 373 1
	@ Naked Function: prologue and epilogue provided by programmer.
	@ args = 0, pretend = 0, frame = 0
	@ frame_needed = 0, uses_anonymous_args = 0
	.loc 2 373 1
	.syntax unified
@ 373 "C:/nordic_semi/nRF5_SDK_17.1.0_ddde560/components/softdevice/s132/headers/ble_l2cap.h" 1
	svc #185
bx r14
@ 0 "" 2
	.thumb
	.syntax unified
	nop
	mov	r0, r3
.LFE188:
	.size	sd_ble_l2cap_ch_release, .-sd_ble_l2cap_ch_release
	.section	.text.sd_ble_l2cap_ch_rx,"ax",%progbits
	.align	1
	.syntax unified
	.thumb
	.thumb_func
	.type	sd_ble_l2cap_ch_rx, %function
sd_ble_l2cap_ch_rx:
.LFB189:
	.loc 2 407 1
	@ Naked Function: prologue and epilogue provided by programmer.
	@ args = 0, pretend = 0, frame = 0
	@ frame_needed = 0, uses_anonymous_args = 0
	.loc 2 407 1
	.syntax unified
@ 407 "C:/nordic_semi/nRF5_SDK_17.1.0_ddde560/components/softdevice/s132/headers/ble_l2cap.h" 1
	svc #186
bx r14
@ 0 "" 2
	.thumb
	.syntax unified
	nop
	mov	r0, r3
.LFE189:
	.size	sd_ble_l2cap_ch_rx, .-sd_ble_l2cap_ch_rx
	.section	.text.sd_ble_l2cap_ch_tx,"ax",%progbits
	.align	1
	.syntax unified
	.thumb
	.thumb_func
	.type	sd_ble_l2cap_ch_tx, %function
sd_ble_l2cap_ch_tx:
.LFB190:
	.loc 2 452 1
	@ Naked Function: prologue and epilogue provided by programmer.
	@ args = 0, pretend = 0, frame = 0
	@ frame_needed = 0, uses_anonymous_args = 0
	.loc 2 452 1
	.syntax unified
@ 452 "C:/nordic_semi/nRF5_SDK_17.1.0_ddde560/components/softdevice/s132/headers/ble_l2cap.h" 1
	svc #187
bx r14
@ 0 "" 2
	.thumb
	.syntax unified
	nop
	mov	r0, r3
.LFE190:
	.size	sd_ble_l2cap_ch_tx, .-sd_ble_l2cap_ch_tx
	.section	.text.sd_ble_l2cap_ch_flow_control,"ax",%progbits
	.align	1
	.syntax unified
	.thumb
	.thumb_func
	.type	sd_ble_l2cap_ch_flow_control, %function
sd_ble_l2cap_ch_flow_control:
.LFB191:
	.loc 2 496 1
	@ Naked Function: prologue and epilogue provided by programmer.
	@ args = 0, pretend = 0, frame = 0
	@ frame_needed = 0, uses_anonymous_args = 0
	.loc 2 496 1
	.syntax unified
@ 496 "C:/nordic_semi/nRF5_SDK_17.1.0_ddde560/components/softdevice/s132/headers/ble_l2cap.h" 1
	svc #188
bx r14
@ 0 "" 2
	.thumb
	.syntax unified
	nop
	mov	r0, r3
.LFE191:
	.size	sd_ble_l2cap_ch_flow_control, .-sd_ble_l2cap_ch_flow_control
	.section	.text.sd_ble_gattc_primary_services_discover,"ax",%progbits
	.align	1
	.syntax unified
	.thumb
	.thumb_func
	.type	sd_ble_gattc_primary_services_discover, %function
sd_ble_gattc_primary_services_discover:
.LFB192:
	.file 3 "C:/nordic_semi/nRF5_SDK_17.1.0_ddde560/components/softdevice/s132/headers/ble_gattc.h"
	.loc 3 419 1
	@ Naked Function: prologue and epilogue provided by programmer.
	@ args = 0, pretend = 0, frame = 0
	@ frame_needed = 0, uses_anonymous_args = 0
	.loc 3 419 1
	.syntax unified
@ 419 "C:/nordic_semi/nRF5_SDK_17.1.0_ddde560/components/softdevice/s132/headers/ble_gattc.h" 1
	svc #155
bx r14
@ 0 "" 2
	.thumb
	.syntax unified
	nop
	mov	r0, r3
.LFE192:
	.size	sd_ble_gattc_primary_services_discover, .-sd_ble_gattc_primary_services_discover
	.section	.text.sd_ble_gattc_relationships_discover,"ax",%progbits
	.align	1
	.syntax unified
	.thumb
	.thumb_func
	.type	sd_ble_gattc_relationships_discover, %function
sd_ble_gattc_relationships_discover:
.LFB193:
	.loc 3 447 1
	@ Naked Function: prologue and epilogue provided by programmer.
	@ args = 0, pretend = 0, frame = 0
	@ frame_needed = 0, uses_anonymous_args = 0
	.loc 3 447 1
	.syntax unified
@ 447 "C:/nordic_semi/nRF5_SDK_17.1.0_ddde560/components/softdevice/s132/headers/ble_gattc.h" 1
	svc #156
bx r14
@ 0 "" 2
	.thumb
	.syntax unified
	nop
	mov	r0, r3
.LFE193:
	.size	sd_ble_gattc_relationships_discover, .-sd_ble_gattc_relationships_discover
	.section	.text.sd_ble_gattc_characteristics_discover,"ax",%progbits
	.align	1
	.syntax unified
	.thumb
	.thumb_func
	.type	sd_ble_gattc_characteristics_discover, %function
sd_ble_gattc_characteristics_discover:
.LFB194:
	.loc 3 474 1
	@ Naked Function: prologue and epilogue provided by programmer.
	@ args = 0, pretend = 0, frame = 0
	@ frame_needed = 0, uses_anonymous_args = 0
	.loc 3 474 1
	.syntax unified
@ 474 "C:/nordic_semi/nRF5_SDK_17.1.0_ddde560/components/softdevice/s132/headers/ble_gattc.h" 1
	svc #157
bx r14
@ 0 "" 2
	.thumb
	.syntax unified
	nop
	mov	r0, r3
.LFE194:
	.size	sd_ble_gattc_characteristics_discover, .-sd_ble_gattc_characteristics_discover
	.section	.text.sd_ble_gattc_descriptors_discover,"ax",%progbits
	.align	1
	.syntax unified
	.thumb
	.thumb_func
	.type	sd_ble_gattc_descriptors_discover, %function
sd_ble_gattc_descriptors_discover:
.LFB195:
	.loc 3 501 1
	@ Naked Function: prologue and epilogue provided by programmer.
	@ args = 0, pretend = 0, frame = 0
	@ frame_needed = 0, uses_anonymous_args = 0
	.loc 3 501 1
	.syntax unified
@ 501 "C:/nordic_semi/nRF5_SDK_17.1.0_ddde560/components/softdevice/s132/headers/ble_gattc.h" 1
	svc #158
bx r14
@ 0 "" 2
	.thumb
	.syntax unified
	nop
	mov	r0, r3
.LFE195:
	.size	sd_ble_gattc_descriptors_discover, .-sd_ble_gattc_descriptors_discover
	.section	.text.sd_ble_gattc_char_value_by_uuid_read,"ax",%progbits
	.align	1
	.syntax unified
	.thumb
	.thumb_func
	.type	sd_ble_gattc_char_value_by_uuid_read, %function
sd_ble_gattc_char_value_by_uuid_read:
.LFB196:
	.loc 3 528 1
	@ Naked Function: prologue and epilogue provided by programmer.
	@ args = 0, pretend = 0, frame = 0
	@ frame_needed = 0, uses_anonymous_args = 0
	.loc 3 528 1
	.syntax unified
@ 528 "C:/nordic_semi/nRF5_SDK_17.1.0_ddde560/components/softdevice/s132/headers/ble_gattc.h" 1
	svc #160
bx r14
@ 0 "" 2
	.thumb
	.syntax unified
	nop
	mov	r0, r3
.LFE196:
	.size	sd_ble_gattc_char_value_by_uuid_read, .-sd_ble_gattc_char_value_by_uuid_read
	.section	.text.sd_ble_gattc_read,"ax",%progbits
	.align	1
	.syntax unified
	.thumb
	.thumb_func
	.type	sd_ble_gattc_read, %function
sd_ble_gattc_read:
.LFB197:
	.loc 3 555 1
	@ Naked Function: prologue and epilogue provided by programmer.
	@ args = 0, pretend = 0, frame = 0
	@ frame_needed = 0, uses_anonymous_args = 0
	.loc 3 555 1
	.syntax unified
@ 555 "C:/nordic_semi/nRF5_SDK_17.1.0_ddde560/components/softdevice/s132/headers/ble_gattc.h" 1
	svc #161
bx r14
@ 0 "" 2
	.thumb
	.syntax unified
	nop
	mov	r0, r3
.LFE197:
	.size	sd_ble_gattc_read, .-sd_ble_gattc_read
	.section	.text.sd_ble_gattc_char_values_read,"ax",%progbits
	.align	1
	.syntax unified
	.thumb
	.thumb_func
	.type	sd_ble_gattc_char_values_read, %function
sd_ble_gattc_char_values_read:
.LFB198:
	.loc 3 581 1
	@ Naked Function: prologue and epilogue provided by programmer.
	@ args = 0, pretend = 0, frame = 0
	@ frame_needed = 0, uses_anonymous_args = 0
	.loc 3 581 1
	.syntax unified
@ 581 "C:/nordic_semi/nRF5_SDK_17.1.0_ddde560/components/softdevice/s132/headers/ble_gattc.h" 1
	svc #162
bx r14
@ 0 "" 2
	.thumb
	.syntax unified
	nop
	mov	r0, r3
.LFE198:
	.size	sd_ble_gattc_char_values_read, .-sd_ble_gattc_char_values_read
	.section	.text.sd_ble_gattc_write,"ax",%progbits
	.align	1
	.syntax unified
	.thumb
	.thumb_func
	.type	sd_ble_gattc_write, %function
sd_ble_gattc_write:
.LFB199:
	.loc 3 628 1
	@ Naked Function: prologue and epilogue provided by programmer.
	@ args = 0, pretend = 0, frame = 0
	@ frame_needed = 0, uses_anonymous_args = 0
	.loc 3 628 1
	.syntax unified
@ 628 "C:/nordic_semi/nRF5_SDK_17.1.0_ddde560/components/softdevice/s132/headers/ble_gattc.h" 1
	svc #163
bx r14
@ 0 "" 2
	.thumb
	.syntax unified
	nop
	mov	r0, r3
.LFE199:
	.size	sd_ble_gattc_write, .-sd_ble_gattc_write
	.section	.text.sd_ble_gattc_hv_confirm,"ax",%progbits
	.align	1
	.syntax unified
	.thumb
	.thumb_func
	.type	sd_ble_gattc_hv_confirm, %function
sd_ble_gattc_hv_confirm:
.LFB200:
	.loc 3 646 1
	@ Naked Function: prologue and epilogue provided by programmer.
	@ args = 0, pretend = 0, frame = 0
	@ frame_needed = 0, uses_anonymous_args = 0
	.loc 3 646 1
	.syntax unified
@ 646 "C:/nordic_semi/nRF5_SDK_17.1.0_ddde560/components/softdevice/s132/headers/ble_gattc.h" 1
	svc #164
bx r14
@ 0 "" 2
	.thumb
	.syntax unified
	nop
	mov	r0, r3
.LFE200:
	.size	sd_ble_gattc_hv_confirm, .-sd_ble_gattc_hv_confirm
	.section	.text.sd_ble_gattc_attr_info_discover,"ax",%progbits
	.align	1
	.syntax unified
	.thumb
	.thumb_func
	.type	sd_ble_gattc_attr_info_discover, %function
sd_ble_gattc_attr_info_discover:
.LFB201:
	.loc 3 664 1
	@ Naked Function: prologue and epilogue provided by programmer.
	@ args = 0, pretend = 0, frame = 0
	@ frame_needed = 0, uses_anonymous_args = 0
	.loc 3 664 1
	.syntax unified
@ 664 "C:/nordic_semi/nRF5_SDK_17.1.0_ddde560/components/softdevice/s132/headers/ble_gattc.h" 1
	svc #159
bx r14
@ 0 "" 2
	.thumb
	.syntax unified
	nop
	mov	r0, r3
.LFE201:
	.size	sd_ble_gattc_attr_info_discover, .-sd_ble_gattc_attr_info_discover
	.section	.text.sd_ble_gattc_exchange_mtu_request,"ax",%progbits
	.align	1
	.syntax unified
	.thumb
	.thumb_func
	.type	sd_ble_gattc_exchange_mtu_request, %function
sd_ble_gattc_exchange_mtu_request:
.LFB202:
	.loc 3 697 1
	@ Naked Function: prologue and epilogue provided by programmer.
	@ args = 0, pretend = 0, frame = 0
	@ frame_needed = 0, uses_anonymous_args = 0
	.loc 3 697 1
	.syntax unified
@ 697 "C:/nordic_semi/nRF5_SDK_17.1.0_ddde560/components/softdevice/s132/headers/ble_gattc.h" 1
	svc #165
bx r14
@ 0 "" 2
	.thumb
	.syntax unified
	nop
	mov	r0, r3
.LFE202:
	.size	sd_ble_gattc_exchange_mtu_request, .-sd_ble_gattc_exchange_mtu_request
	.section	.text.sd_ble_gatts_service_add,"ax",%progbits
	.align	1
	.syntax unified
	.thumb
	.thumb_func
	.type	sd_ble_gatts_service_add, %function
sd_ble_gatts_service_add:
.LFB204:
	.file 4 "C:/nordic_semi/nRF5_SDK_17.1.0_ddde560/components/softdevice/s132/headers/ble_gatts.h"
	.loc 4 446 1
	@ Naked Function: prologue and epilogue provided by programmer.
	@ args = 0, pretend = 0, frame = 0
	@ frame_needed = 0, uses_anonymous_args = 0
	.loc 4 446 1
	.syntax unified
@ 446 "C:/nordic_semi/nRF5_SDK_17.1.0_ddde560/components/softdevice/s132/headers/ble_gatts.h" 1
	svc #168
bx r14
@ 0 "" 2
	.thumb
	.syntax unified
	nop
	mov	r0, r3
.LFE204:
	.size	sd_ble_gatts_service_add, .-sd_ble_gatts_service_add
	.section	.text.sd_ble_gatts_include_add,"ax",%progbits
	.align	1
	.syntax unified
	.thumb
	.thumb_func
	.type	sd_ble_gatts_include_add, %function
sd_ble_gatts_include_add:
.LFB205:
	.loc 4 472 1
	@ Naked Function: prologue and epilogue provided by programmer.
	@ args = 0, pretend = 0, frame = 0
	@ frame_needed = 0, uses_anonymous_args = 0
	.loc 4 472 1
	.syntax unified
@ 472 "C:/nordic_semi/nRF5_SDK_17.1.0_ddde560/components/softdevice/s132/headers/ble_gatts.h" 1
	svc #169
bx r14
@ 0 "" 2
	.thumb
	.syntax unified
	nop
	mov	r0, r3
.LFE205:
	.size	sd_ble_gatts_include_add, .-sd_ble_gatts_include_add
	.section	.text.sd_ble_gatts_characteristic_add,"ax",%progbits
	.align	1
	.syntax unified
	.thumb
	.thumb_func
	.type	sd_ble_gatts_characteristic_add, %function
sd_ble_gatts_characteristic_add:
.LFB206:
	.loc 4 501 1
	@ Naked Function: prologue and epilogue provided by programmer.
	@ args = 0, pretend = 0, frame = 0
	@ frame_needed = 0, uses_anonymous_args = 0
	.loc 4 501 1
	.syntax unified
@ 501 "C:/nordic_semi/nRF5_SDK_17.1.0_ddde560/components/softdevice/s132/headers/ble_gatts.h" 1
	svc #170
bx r14
@ 0 "" 2
	.thumb
	.syntax unified
	nop
	mov	r0, r3
.LFE206:
	.size	sd_ble_gatts_characteristic_add, .-sd_ble_gatts_characteristic_add
	.section	.text.sd_ble_gatts_descriptor_add,"ax",%progbits
	.align	1
	.syntax unified
	.thumb
	.thumb_func
	.type	sd_ble_gatts_descriptor_add, %function
sd_ble_gatts_descriptor_add:
.LFB207:
	.loc 4 524 1
	@ Naked Function: prologue and epilogue provided by programmer.
	@ args = 0, pretend = 0, frame = 0
	@ frame_needed = 0, uses_anonymous_args = 0
	.loc 4 524 1
	.syntax unified
@ 524 "C:/nordic_semi/nRF5_SDK_17.1.0_ddde560/components/softdevice/s132/headers/ble_gatts.h" 1
	svc #171
bx r14
@ 0 "" 2
	.thumb
	.syntax unified
	nop
	mov	r0, r3
.LFE207:
	.size	sd_ble_gatts_descriptor_add, .-sd_ble_gatts_descriptor_add
	.section	.text.sd_ble_gatts_value_set,"ax",%progbits
	.align	1
	.syntax unified
	.thumb
	.thumb_func
	.type	sd_ble_gatts_value_set, %function
sd_ble_gatts_value_set:
.LFB208:
	.loc 4 547 1
	@ Naked Function: prologue and epilogue provided by programmer.
	@ args = 0, pretend = 0, frame = 0
	@ frame_needed = 0, uses_anonymous_args = 0
	.loc 4 547 1
	.syntax unified
@ 547 "C:/nordic_semi/nRF5_SDK_17.1.0_ddde560/components/softdevice/s132/headers/ble_gatts.h" 1
	svc #172
bx r14
@ 0 "" 2
	.thumb
	.syntax unified
	nop
	mov	r0, r3
.LFE208:
	.size	sd_ble_gatts_value_set, .-sd_ble_gatts_value_set
	.section	.text.sd_ble_gatts_value_get,"ax",%progbits
	.align	1
	.syntax unified
	.thumb
	.thumb_func
	.type	sd_ble_gatts_value_get, %function
sd_ble_gatts_value_get:
.LFB209:
	.loc 4 571 1
	@ Naked Function: prologue and epilogue provided by programmer.
	@ args = 0, pretend = 0, frame = 0
	@ frame_needed = 0, uses_anonymous_args = 0
	.loc 4 571 1
	.syntax unified
@ 571 "C:/nordic_semi/nRF5_SDK_17.1.0_ddde560/components/softdevice/s132/headers/ble_gatts.h" 1
	svc #173
bx r14
@ 0 "" 2
	.thumb
	.syntax unified
	nop
	mov	r0, r3
.LFE209:
	.size	sd_ble_gatts_value_get, .-sd_ble_gatts_value_get
	.section	.text.sd_ble_gatts_hvx,"ax",%progbits
	.align	1
	.syntax unified
	.thumb
	.thumb_func
	.type	sd_ble_gatts_hvx, %function
sd_ble_gatts_hvx:
.LFB210:
	.loc 4 636 1
	@ Naked Function: prologue and epilogue provided by programmer.
	@ args = 0, pretend = 0, frame = 0
	@ frame_needed = 0, uses_anonymous_args = 0
	.loc 4 636 1
	.syntax unified
@ 636 "C:/nordic_semi/nRF5_SDK_17.1.0_ddde560/components/softdevice/s132/headers/ble_gatts.h" 1
	svc #174
bx r14
@ 0 "" 2
	.thumb
	.syntax unified
	nop
	mov	r0, r3
.LFE210:
	.size	sd_ble_gatts_hvx, .-sd_ble_gatts_hvx
	.section	.text.sd_ble_gatts_service_changed,"ax",%progbits
	.align	1
	.syntax unified
	.thumb
	.thumb_func
	.type	sd_ble_gatts_service_changed, %function
sd_ble_gatts_service_changed:
.LFB211:
	.loc 4 672 1
	@ Naked Function: prologue and epilogue provided by programmer.
	@ args = 0, pretend = 0, frame = 0
	@ frame_needed = 0, uses_anonymous_args = 0
	.loc 4 672 1
	.syntax unified
@ 672 "C:/nordic_semi/nRF5_SDK_17.1.0_ddde560/components/softdevice/s132/headers/ble_gatts.h" 1
	svc #175
bx r14
@ 0 "" 2
	.thumb
	.syntax unified
	nop
	mov	r0, r3
.LFE211:
	.size	sd_ble_gatts_service_changed, .-sd_ble_gatts_service_changed
	.section	.text.sd_ble_gatts_rw_authorize_reply,"ax",%progbits
	.align	1
	.syntax unified
	.thumb
	.thumb_func
	.type	sd_ble_gatts_rw_authorize_reply, %function
sd_ble_gatts_rw_authorize_reply:
.LFB212:
	.loc 4 705 1
	@ Naked Function: prologue and epilogue provided by programmer.
	@ args = 0, pretend = 0, frame = 0
	@ frame_needed = 0, uses_anonymous_args = 0
	.loc 4 705 1
	.syntax unified
@ 705 "C:/nordic_semi/nRF5_SDK_17.1.0_ddde560/components/softdevice/s132/headers/ble_gatts.h" 1
	svc #176
bx r14
@ 0 "" 2
	.thumb
	.syntax unified
	nop
	mov	r0, r3
.LFE212:
	.size	sd_ble_gatts_rw_authorize_reply, .-sd_ble_gatts_rw_authorize_reply
	.section	.text.sd_ble_gatts_sys_attr_set,"ax",%progbits
	.align	1
	.syntax unified
	.thumb
	.thumb_func
	.type	sd_ble_gatts_sys_attr_set, %function
sd_ble_gatts_sys_attr_set:
.LFB213:
	.loc 4 749 1
	@ Naked Function: prologue and epilogue provided by programmer.
	@ args = 0, pretend = 0, frame = 0
	@ frame_needed = 0, uses_anonymous_args = 0
	.loc 4 749 1
	.syntax unified
@ 749 "C:/nordic_semi/nRF5_SDK_17.1.0_ddde560/components/softdevice/s132/headers/ble_gatts.h" 1
	svc #177
bx r14
@ 0 "" 2
	.thumb
	.syntax unified
	nop
	mov	r0, r3
.LFE213:
	.size	sd_ble_gatts_sys_attr_set, .-sd_ble_gatts_sys_attr_set
	.section	.text.sd_ble_gatts_sys_attr_get,"ax",%progbits
	.align	1
	.syntax unified
	.thumb
	.thumb_func
	.type	sd_ble_gatts_sys_attr_get, %function
sd_ble_gatts_sys_attr_get:
.LFB214:
	.loc 4 782 1
	@ Naked Function: prologue and epilogue provided by programmer.
	@ args = 0, pretend = 0, frame = 0
	@ frame_needed = 0, uses_anonymous_args = 0
	.loc 4 782 1
	.syntax unified
@ 782 "C:/nordic_semi/nRF5_SDK_17.1.0_ddde560/components/softdevice/s132/headers/ble_gatts.h" 1
	svc #178
bx r14
@ 0 "" 2
	.thumb
	.syntax unified
	nop
	mov	r0, r3
.LFE214:
	.size	sd_ble_gatts_sys_attr_get, .-sd_ble_gatts_sys_attr_get
	.section	.text.sd_ble_gatts_initial_user_handle_get,"ax",%progbits
	.align	1
	.syntax unified
	.thumb
	.thumb_func
	.type	sd_ble_gatts_initial_user_handle_get, %function
sd_ble_gatts_initial_user_handle_get:
.LFB215:
	.loc 4 792 1
	@ Naked Function: prologue and epilogue provided by programmer.
	@ args = 0, pretend = 0, frame = 0
	@ frame_needed = 0, uses_anonymous_args = 0
	.loc 4 792 1
	.syntax unified
@ 792 "C:/nordic_semi/nRF5_SDK_17.1.0_ddde560/components/softdevice/s132/headers/ble_gatts.h" 1
	svc #179
bx r14
@ 0 "" 2
	.thumb
	.syntax unified
	nop
	mov	r0, r3
.LFE215:
	.size	sd_ble_gatts_initial_user_handle_get, .-sd_ble_gatts_initial_user_handle_get
	.section	.text.sd_ble_gatts_attr_get,"ax",%progbits
	.align	1
	.syntax unified
	.thumb
	.thumb_func
	.type	sd_ble_gatts_attr_get, %function
sd_ble_gatts_attr_get:
.LFB216:
	.loc 4 805 1
	@ Naked Function: prologue and epilogue provided by programmer.
	@ args = 0, pretend = 0, frame = 0
	@ frame_needed = 0, uses_anonymous_args = 0
	.loc 4 805 1
	.syntax unified
@ 805 "C:/nordic_semi/nRF5_SDK_17.1.0_ddde560/components/softdevice/s132/headers/ble_gatts.h" 1
	svc #180
bx r14
@ 0 "" 2
	.thumb
	.syntax unified
	nop
	mov	r0, r3
.LFE216:
	.size	sd_ble_gatts_attr_get, .-sd_ble_gatts_attr_get
	.section	.text.sd_ble_gatts_exchange_mtu_reply,"ax",%progbits
	.align	1
	.syntax unified
	.thumb
	.thumb_func
	.type	sd_ble_gatts_exchange_mtu_reply, %function
sd_ble_gatts_exchange_mtu_reply:
.LFB217:
	.loc 4 835 1
	@ Naked Function: prologue and epilogue provided by programmer.
	@ args = 0, pretend = 0, frame = 0
	@ frame_needed = 0, uses_anonymous_args = 0
	.loc 4 835 1
	.syntax unified
@ 835 "C:/nordic_semi/nRF5_SDK_17.1.0_ddde560/components/softdevice/s132/headers/ble_gatts.h" 1
	svc #181
bx r14
@ 0 "" 2
	.thumb
	.syntax unified
	nop
	mov	r0, r3
.LFE217:
	.size	sd_ble_gatts_exchange_mtu_reply, .-sd_ble_gatts_exchange_mtu_reply
	.section	.text.sd_ble_enable,"ax",%progbits
	.align	1
	.syntax unified
	.thumb
	.thumb_func
	.type	sd_ble_enable, %function
sd_ble_enable:
.LFB218:
	.file 5 "C:/nordic_semi/nRF5_SDK_17.1.0_ddde560/components/softdevice/s132/headers/ble.h"
	.loc 5 434 1
	@ Naked Function: prologue and epilogue provided by programmer.
	@ args = 0, pretend = 0, frame = 0
	@ frame_needed = 0, uses_anonymous_args = 0
	.loc 5 434 1
	.syntax unified
@ 434 "C:/nordic_semi/nRF5_SDK_17.1.0_ddde560/components/softdevice/s132/headers/ble.h" 1
	svc #96
bx r14
@ 0 "" 2
	.thumb
	.syntax unified
	nop
	mov	r0, r3
.LFE218:
	.size	sd_ble_enable, .-sd_ble_enable
	.section	.text.sd_ble_cfg_set,"ax",%progbits
	.align	1
	.syntax unified
	.thumb
	.thumb_func
	.type	sd_ble_cfg_set, %function
sd_ble_cfg_set:
.LFB219:
	.loc 5 470 1
	@ Naked Function: prologue and epilogue provided by programmer.
	@ args = 0, pretend = 0, frame = 0
	@ frame_needed = 0, uses_anonymous_args = 0
	.loc 5 470 1
	.syntax unified
@ 470 "C:/nordic_semi/nRF5_SDK_17.1.0_ddde560/components/softdevice/s132/headers/ble.h" 1
	svc #105
bx r14
@ 0 "" 2
	.thumb
	.syntax unified
	nop
	mov	r0, r3
.LFE219:
	.size	sd_ble_cfg_set, .-sd_ble_cfg_set
	.section	.text.sd_ble_evt_get,"ax",%progbits
	.align	1
	.syntax unified
	.thumb
	.thumb_func
	.type	sd_ble_evt_get, %function
sd_ble_evt_get:
.LFB220:
	.loc 5 508 1
	@ Naked Function: prologue and epilogue provided by programmer.
	@ args = 0, pretend = 0, frame = 0
	@ frame_needed = 0, uses_anonymous_args = 0
	.loc 5 508 1
	.syntax unified
@ 508 "C:/nordic_semi/nRF5_SDK_17.1.0_ddde560/components/softdevice/s132/headers/ble.h" 1
	svc #97
bx r14
@ 0 "" 2
	.thumb
	.syntax unified
	nop
	mov	r0, r3
.LFE220:
	.size	sd_ble_evt_get, .-sd_ble_evt_get
	.section	.text.sd_ble_uuid_vs_add,"ax",%progbits
	.align	1
	.syntax unified
	.thumb
	.thumb_func
	.type	sd_ble_uuid_vs_add, %function
sd_ble_uuid_vs_add:
.LFB221:
	.loc 5 537 1
	@ Naked Function: prologue and epilogue provided by programmer.
	@ args = 0, pretend = 0, frame = 0
	@ frame_needed = 0, uses_anonymous_args = 0
	.loc 5 537 1
	.syntax unified
@ 537 "C:/nordic_semi/nRF5_SDK_17.1.0_ddde560/components/softdevice/s132/headers/ble.h" 1
	svc #98
bx r14
@ 0 "" 2
	.thumb
	.syntax unified
	nop
	mov	r0, r3
.LFE221:
	.size	sd_ble_uuid_vs_add, .-sd_ble_uuid_vs_add
	.section	.text.sd_ble_uuid_vs_remove,"ax",%progbits
	.align	1
	.syntax unified
	.thumb
	.thumb_func
	.type	sd_ble_uuid_vs_remove, %function
sd_ble_uuid_vs_remove:
.LFB222:
	.loc 5 558 1
	@ Naked Function: prologue and epilogue provided by programmer.
	@ args = 0, pretend = 0, frame = 0
	@ frame_needed = 0, uses_anonymous_args = 0
	.loc 5 558 1
	.syntax unified
@ 558 "C:/nordic_semi/nRF5_SDK_17.1.0_ddde560/components/softdevice/s132/headers/ble.h" 1
	svc #106
bx r14
@ 0 "" 2
	.thumb
	.syntax unified
	nop
	mov	r0, r3
.LFE222:
	.size	sd_ble_uuid_vs_remove, .-sd_ble_uuid_vs_remove
	.section	.text.sd_ble_uuid_decode,"ax",%progbits
	.align	1
	.syntax unified
	.thumb
	.thumb_func
	.type	sd_ble_uuid_decode, %function
sd_ble_uuid_decode:
.LFB223:
	.loc 5 579 1
	@ Naked Function: prologue and epilogue provided by programmer.
	@ args = 0, pretend = 0, frame = 0
	@ frame_needed = 0, uses_anonymous_args = 0
	.loc 5 579 1
	.syntax unified
@ 579 "C:/nordic_semi/nRF5_SDK_17.1.0_ddde560/components/softdevice/s132/headers/ble.h" 1
	svc #99
bx r14
@ 0 "" 2
	.thumb
	.syntax unified
	nop
	mov	r0, r3
.LFE223:
	.size	sd_ble_uuid_decode, .-sd_ble_uuid_decode
	.section	.text.sd_ble_uuid_encode,"ax",%progbits
	.align	1
	.syntax unified
	.thumb
	.thumb_func
	.type	sd_ble_uuid_encode, %function
sd_ble_uuid_encode:
.LFB224:
	.loc 5 594 1
	@ Naked Function: prologue and epilogue provided by programmer.
	@ args = 0, pretend = 0, frame = 0
	@ frame_needed = 0, uses_anonymous_args = 0
	.loc 5 594 1
	.syntax unified
@ 594 "C:/nordic_semi/nRF5_SDK_17.1.0_ddde560/components/softdevice/s132/headers/ble.h" 1
	svc #100
bx r14
@ 0 "" 2
	.thumb
	.syntax unified
	nop
	mov	r0, r3
.LFE224:
	.size	sd_ble_uuid_encode, .-sd_ble_uuid_encode
	.section	.text.sd_ble_version_get,"ax",%progbits
	.align	1
	.syntax unified
	.thumb
	.thumb_func
	.type	sd_ble_version_get, %function
sd_ble_version_get:
.LFB225:
	.loc 5 607 1
	@ Naked Function: prologue and epilogue provided by programmer.
	@ args = 0, pretend = 0, frame = 0
	@ frame_needed = 0, uses_anonymous_args = 0
	.loc 5 607 1
	.syntax unified
@ 607 "C:/nordic_semi/nRF5_SDK_17.1.0_ddde560/components/softdevice/s132/headers/ble.h" 1
	svc #101
bx r14
@ 0 "" 2
	.thumb
	.syntax unified
	nop
	mov	r0, r3
.LFE225:
	.size	sd_ble_version_get, .-sd_ble_version_get
	.section	.text.sd_ble_user_mem_reply,"ax",%progbits
	.align	1
	.syntax unified
	.thumb
	.thumb_func
	.type	sd_ble_user_mem_reply, %function
sd_ble_user_mem_reply:
.LFB226:
	.loc 5 633 1
	@ Naked Function: prologue and epilogue provided by programmer.
	@ args = 0, pretend = 0, frame = 0
	@ frame_needed = 0, uses_anonymous_args = 0
	.loc 5 633 1
	.syntax unified
@ 633 "C:/nordic_semi/nRF5_SDK_17.1.0_ddde560/components/softdevice/s132/headers/ble.h" 1
	svc #102
bx r14
@ 0 "" 2
	.thumb
	.syntax unified
	nop
	mov	r0, r3
.LFE226:
	.size	sd_ble_user_mem_reply, .-sd_ble_user_mem_reply
	.section	.text.sd_ble_opt_set,"ax",%progbits
	.align	1
	.syntax unified
	.thumb
	.thumb_func
	.type	sd_ble_opt_set, %function
sd_ble_opt_set:
.LFB227:
	.loc 5 649 1
	@ Naked Function: prologue and epilogue provided by programmer.
	@ args = 0, pretend = 0, frame = 0
	@ frame_needed = 0, uses_anonymous_args = 0
	.loc 5 649 1
	.syntax unified
@ 649 "C:/nordic_semi/nRF5_SDK_17.1.0_ddde560/components/softdevice/s132/headers/ble.h" 1
	svc #103
bx r14
@ 0 "" 2
	.thumb
	.syntax unified
	nop
	mov	r0, r3
.LFE227:
	.size	sd_ble_opt_set, .-sd_ble_opt_set
	.section	.text.sd_ble_opt_get,"ax",%progbits
	.align	1
	.syntax unified
	.thumb
	.thumb_func
	.type	sd_ble_opt_get, %function
sd_ble_opt_get:
.LFB228:
	.loc 5 668 1
	@ Naked Function: prologue and epilogue provided by programmer.
	@ args = 0, pretend = 0, frame = 0
	@ frame_needed = 0, uses_anonymous_args = 0
	.loc 5 668 1
	.syntax unified
@ 668 "C:/nordic_semi/nRF5_SDK_17.1.0_ddde560/components/softdevice/s132/headers/ble.h" 1
	svc #104
bx r14
@ 0 "" 2
	.thumb
	.syntax unified
	nop
	mov	r0, r3
.LFE228:
	.size	sd_ble_opt_get, .-sd_ble_opt_get
	.section	.text.sd_mbr_command,"ax",%progbits
	.align	1
	.syntax unified
	.thumb
	.thumb_func
	.type	sd_mbr_command, %function
sd_mbr_command:
.LFB229:
	.file 6 "C:/nordic_semi/nRF5_SDK_17.1.0_ddde560/components/softdevice/s132/headers/nrf52/nrf_mbr.h"
	.loc 6 257 1
	@ Naked Function: prologue and epilogue provided by programmer.
	@ args = 0, pretend = 0, frame = 0
	@ frame_needed = 0, uses_anonymous_args = 0
	.loc 6 257 1
	.syntax unified
@ 257 "C:/nordic_semi/nRF5_SDK_17.1.0_ddde560/components/softdevice/s132/headers/nrf52/nrf_mbr.h" 1
	svc #24
bx r14
@ 0 "" 2
	.thumb
	.syntax unified
	nop
	mov	r0, r3
.LFE229:
	.size	sd_mbr_command, .-sd_mbr_command
	.section	.text.battery_level_in_percent,"ax",%progbits
	.align	1
	.syntax unified
	.thumb
	.thumb_func
	.type	battery_level_in_percent, %function
battery_level_in_percent:
.LFB245:
	.file 7 "C:/nordic_semi/nRF5_SDK_17.1.0_ddde560/components/libraries/util/app_util.h"
	.loc 7 1257 1
	@ args = 0, pretend = 0, frame = 16
	@ frame_needed = 0, uses_anonymous_args = 0
	@ link register save eliminated.
	sub	sp, sp, #16
.LCFI0:
	mov	r3, r0
	strh	r3, [sp, #6]	@ movhi
	.loc 7 1260 8
	ldrh	r3, [sp, #6]
	movw	r2, #2999
	cmp	r3, r2
	bls	.L87
	.loc 7 1262 23
	movs	r3, #100
	strb	r3, [sp, #15]
	b	.L88
.L87:
	.loc 7 1264 13
	ldrh	r3, [sp, #6]
	movw	r2, #2900
	cmp	r3, r2
	bls	.L89
	.loc 7 1266 38
	ldrh	r3, [sp, #6]
	rsb	r3, r3, #2992
	adds	r3, r3, #8
	.loc 7 1266 48
	movs	r2, #58
	mul	r3, r2, r3
	.loc 7 1266 54
	ldr	r2, .L94
	smull	r1, r2, r2, r3
	asrs	r2, r2, #5
	asrs	r3, r3, #31
	subs	r3, r3, r2
	.loc 7 1266 29
	uxtb	r3, r3
	.loc 7 1266 23
	adds	r3, r3, #100
	strb	r3, [sp, #15]
	b	.L88
.L89:
	.loc 7 1268 13
	ldrh	r3, [sp, #6]
	movw	r2, #2740
	cmp	r3, r2
	bls	.L90
	.loc 7 1270 37
	ldrh	r3, [sp, #6]
	rsb	r2, r3, #2896
	adds	r2, r2, #4
	.loc 7 1270 47
	mov	r3, r2
	lsls	r3, r3, #1
	add	r3, r3, r2
	lsls	r3, r3, #3
	.loc 7 1270 53
	ldr	r2, .L94+4
	smull	r1, r2, r2, r3
	asrs	r2, r2, #6
	asrs	r3, r3, #31
	subs	r3, r3, r2
	.loc 7 1270 28
	uxtb	r3, r3
	.loc 7 1270 23
	adds	r3, r3, #42
	strb	r3, [sp, #15]
	b	.L88
.L90:
	.loc 7 1272 13
	ldrh	r3, [sp, #6]
	movw	r2, #2440
	cmp	r3, r2
	bls	.L91
	.loc 7 1274 37
	ldrh	r3, [sp, #6]
	rsb	r3, r3, #2736
	adds	r3, r3, #4
	.loc 7 1274 53
	ldr	r2, .L94
	smull	r1, r2, r2, r3
	asrs	r2, r2, #3
	asrs	r3, r3, #31
	subs	r3, r3, r2
	.loc 7 1274 28
	uxtb	r3, r3
	.loc 7 1274 23
	adds	r3, r3, #18
	strb	r3, [sp, #15]
	b	.L88
.L91:
	.loc 7 1276 13
	ldrh	r3, [sp, #6]
	movw	r2, #2100
	cmp	r3, r2
	bls	.L92
	.loc 7 1278 36
	ldrh	r3, [sp, #6]
	rsb	r2, r3, #2432
	adds	r2, r2, #8
	.loc 7 1278 46
	mov	r3, r2
	lsls	r3, r3, #1
	add	r3, r3, r2
	lsls	r3, r3, #1
	.loc 7 1278 51
	ldr	r2, .L94+8
	smull	r1, r2, r2, r3
	asrs	r2, r2, #7
	asrs	r3, r3, #31
	subs	r3, r3, r2
	.loc 7 1278 27
	uxtb	r3, r3
	.loc 7 1278 23
	adds	r3, r3, #6
	strb	r3, [sp, #15]
	b	.L88
.L92:
	.loc 7 1282 23
	movs	r3, #0
	strb	r3, [sp, #15]
.L88:
	.loc 7 1285 12
	ldrb	r3, [sp, #15]	@ zero_extendqisi2
	.loc 7 1286 1
	mov	r0, r3
	add	sp, sp, #16
.LCFI1:
	@ sp needed
	bx	lr
.L95:
	.align	2
.L94:
	.word	1374389535
	.word	1717986919
	.word	1616928865
.LFE245:
	.size	battery_level_in_percent, .-battery_level_in_percent
	.section	.text.sd_mutex_new,"ax",%progbits
	.align	1
	.syntax unified
	.thumb
	.thumb_func
	.type	sd_mutex_new, %function
sd_mutex_new:
.LFB249:
	.file 8 "C:/nordic_semi/nRF5_SDK_17.1.0_ddde560/components/softdevice/s132/headers/nrf_soc.h"
	.loc 8 424 1
	@ Naked Function: prologue and epilogue provided by programmer.
	@ args = 0, pretend = 0, frame = 0
	@ frame_needed = 0, uses_anonymous_args = 0
	.loc 8 424 1
	.syntax unified
@ 424 "C:/nordic_semi/nRF5_SDK_17.1.0_ddde560/components/softdevice/s132/headers/nrf_soc.h" 1
	svc #44
bx r14
@ 0 "" 2
	.thumb
	.syntax unified
	nop
	mov	r0, r3
.LFE249:
	.size	sd_mutex_new, .-sd_mutex_new
	.section	.text.sd_mutex_acquire,"ax",%progbits
	.align	1
	.syntax unified
	.thumb
	.thumb_func
	.type	sd_mutex_acquire, %function
sd_mutex_acquire:
.LFB250:
	.loc 8 433 1
	@ Naked Function: prologue and epilogue provided by programmer.
	@ args = 0, pretend = 0, frame = 0
	@ frame_needed = 0, uses_anonymous_args = 0
	.loc 8 433 1
	.syntax unified
@ 433 "C:/nordic_semi/nRF5_SDK_17.1.0_ddde560/components/softdevice/s132/headers/nrf_soc.h" 1
	svc #45
bx r14
@ 0 "" 2
	.thumb
	.syntax unified
	nop
	mov	r0, r3
.LFE250:
	.size	sd_mutex_acquire, .-sd_mutex_acquire
	.section	.text.sd_mutex_release,"ax",%progbits
	.align	1
	.syntax unified
	.thumb
	.thumb_func
	.type	sd_mutex_release, %function
sd_mutex_release:
.LFB251:
	.loc 8 441 1
	@ Naked Function: prologue and epilogue provided by programmer.
	@ args = 0, pretend = 0, frame = 0
	@ frame_needed = 0, uses_anonymous_args = 0
	.loc 8 441 1
	.syntax unified
@ 441 "C:/nordic_semi/nRF5_SDK_17.1.0_ddde560/components/softdevice/s132/headers/nrf_soc.h" 1
	svc #46
bx r14
@ 0 "" 2
	.thumb
	.syntax unified
	nop
	mov	r0, r3
.LFE251:
	.size	sd_mutex_release, .-sd_mutex_release
	.section	.text.sd_rand_application_pool_capacity_get,"ax",%progbits
	.align	1
	.syntax unified
	.thumb
	.thumb_func
	.type	sd_rand_application_pool_capacity_get, %function
sd_rand_application_pool_capacity_get:
.LFB252:
	.loc 8 449 1
	@ Naked Function: prologue and epilogue provided by programmer.
	@ args = 0, pretend = 0, frame = 0
	@ frame_needed = 0, uses_anonymous_args = 0
	.loc 8 449 1
	.syntax unified
@ 449 "C:/nordic_semi/nRF5_SDK_17.1.0_ddde560/components/softdevice/s132/headers/nrf_soc.h" 1
	svc #47
bx r14
@ 0 "" 2
	.thumb
	.syntax unified
	nop
	mov	r0, r3
.LFE252:
	.size	sd_rand_application_pool_capacity_get, .-sd_rand_application_pool_capacity_get
	.section	.text.sd_rand_application_bytes_available_get,"ax",%progbits
	.align	1
	.syntax unified
	.thumb
	.thumb_func
	.type	sd_rand_application_bytes_available_get, %function
sd_rand_application_bytes_available_get:
.LFB253:
	.loc 8 457 1
	@ Naked Function: prologue and epilogue provided by programmer.
	@ args = 0, pretend = 0, frame = 0
	@ frame_needed = 0, uses_anonymous_args = 0
	.loc 8 457 1
	.syntax unified
@ 457 "C:/nordic_semi/nRF5_SDK_17.1.0_ddde560/components/softdevice/s132/headers/nrf_soc.h" 1
	svc #48
bx r14
@ 0 "" 2
	.thumb
	.syntax unified
	nop
	mov	r0, r3
.LFE253:
	.size	sd_rand_application_bytes_available_get, .-sd_rand_application_bytes_available_get
	.section	.text.sd_rand_application_vector_get,"ax",%progbits
	.align	1
	.syntax unified
	.thumb
	.thumb_func
	.type	sd_rand_application_vector_get, %function
sd_rand_application_vector_get:
.LFB254:
	.loc 8 467 1
	@ Naked Function: prologue and epilogue provided by programmer.
	@ args = 0, pretend = 0, frame = 0
	@ frame_needed = 0, uses_anonymous_args = 0
	.loc 8 467 1
	.syntax unified
@ 467 "C:/nordic_semi/nRF5_SDK_17.1.0_ddde560/components/softdevice/s132/headers/nrf_soc.h" 1
	svc #49
bx r14
@ 0 "" 2
	.thumb
	.syntax unified
	nop
	mov	r0, r3
.LFE254:
	.size	sd_rand_application_vector_get, .-sd_rand_application_vector_get
	.section	.text.sd_power_reset_reason_get,"ax",%progbits
	.align	1
	.syntax unified
	.thumb
	.thumb_func
	.type	sd_power_reset_reason_get, %function
sd_power_reset_reason_get:
.LFB255:
	.loc 8 475 1
	@ Naked Function: prologue and epilogue provided by programmer.
	@ args = 0, pretend = 0, frame = 0
	@ frame_needed = 0, uses_anonymous_args = 0
	.loc 8 475 1
	.syntax unified
@ 475 "C:/nordic_semi/nRF5_SDK_17.1.0_ddde560/components/softdevice/s132/headers/nrf_soc.h" 1
	svc #52
bx r14
@ 0 "" 2
	.thumb
	.syntax unified
	nop
	mov	r0, r3
.LFE255:
	.size	sd_power_reset_reason_get, .-sd_power_reset_reason_get
	.section	.text.sd_power_reset_reason_clr,"ax",%progbits
	.align	1
	.syntax unified
	.thumb
	.thumb_func
	.type	sd_power_reset_reason_clr, %function
sd_power_reset_reason_clr:
.LFB256:
	.loc 8 483 1
	@ Naked Function: prologue and epilogue provided by programmer.
	@ args = 0, pretend = 0, frame = 0
	@ frame_needed = 0, uses_anonymous_args = 0
	.loc 8 483 1
	.syntax unified
@ 483 "C:/nordic_semi/nRF5_SDK_17.1.0_ddde560/components/softdevice/s132/headers/nrf_soc.h" 1
	svc #53
bx r14
@ 0 "" 2
	.thumb
	.syntax unified
	nop
	mov	r0, r3
.LFE256:
	.size	sd_power_reset_reason_clr, .-sd_power_reset_reason_clr
	.section	.text.sd_power_mode_set,"ax",%progbits
	.align	1
	.syntax unified
	.thumb
	.thumb_func
	.type	sd_power_mode_set, %function
sd_power_mode_set:
.LFB257:
	.loc 8 492 1
	@ Naked Function: prologue and epilogue provided by programmer.
	@ args = 0, pretend = 0, frame = 0
	@ frame_needed = 0, uses_anonymous_args = 0
	.loc 8 492 1
	.syntax unified
@ 492 "C:/nordic_semi/nRF5_SDK_17.1.0_ddde560/components/softdevice/s132/headers/nrf_soc.h" 1
	svc #50
bx r14
@ 0 "" 2
	.thumb
	.syntax unified
	nop
	mov	r0, r3
.LFE257:
	.size	sd_power_mode_set, .-sd_power_mode_set
	.section	.text.sd_power_system_off,"ax",%progbits
	.align	1
	.syntax unified
	.thumb
	.thumb_func
	.type	sd_power_system_off, %function
sd_power_system_off:
.LFB258:
	.loc 8 498 1
	@ Naked Function: prologue and epilogue provided by programmer.
	@ args = 0, pretend = 0, frame = 0
	@ frame_needed = 0, uses_anonymous_args = 0
	.loc 8 498 1
	.syntax unified
@ 498 "C:/nordic_semi/nRF5_SDK_17.1.0_ddde560/components/softdevice/s132/headers/nrf_soc.h" 1
	svc #51
bx r14
@ 0 "" 2
	.thumb
	.syntax unified
	nop
	mov	r0, r3
.LFE258:
	.size	sd_power_system_off, .-sd_power_system_off
	.section	.text.sd_power_pof_enable,"ax",%progbits
	.align	1
	.syntax unified
	.thumb
	.thumb_func
	.type	sd_power_pof_enable, %function
sd_power_pof_enable:
.LFB259:
	.loc 8 509 1
	@ Naked Function: prologue and epilogue provided by programmer.
	@ args = 0, pretend = 0, frame = 0
	@ frame_needed = 0, uses_anonymous_args = 0
	.loc 8 509 